; Function Attrs: mustprogress nofree norecurse nosync nounwind willreturn memory(read, argmem: readwrite, inaccessiblemem: none) uwtable
define dso_local range(i32 -1, 1) i32 @unpack8(ptr noundef writeonly captures(none) %0, ptr noundef captures(none) %1) #1 {
  %3 = getelementptr inbounds nuw i8, ptr %1, i64 16
  %4 = load i32, ptr %3, align 8
  %5 = getelementptr inbounds nuw i8, ptr %1, i64 20
  %6 = load i32, ptr %5, align 4
  %7 = icmp eq i32 %4, %6
  br i1 %7, label %16, label %8

8:                                                ; preds = %2
  %9 = getelementptr inbounds nuw i8, ptr %1, i64 8
  %10 = load ptr, ptr %9, align 8
  %11 = zext i32 %6 to i64
  %12 = getelementptr inbounds nuw i8, ptr %10, i64 %11
  %13 = load i8, ptr %12, align 1
  store i8 %13, ptr %0, align 1
  %14 = load i32, ptr %5, align 4
  %15 = add i32 %14, 1
  store i32 %15, ptr %5, align 4
  br label %16

16:                                               ; preds = %2, %8
  %.0 = phi i32 [ 0, %8 ], [ -1, %2 ]
  ret i32 %.0
}